; ModuleID = '11/226.c'
source_filename = "11/226.c"
target datalayout = "e-m:e-p270:32:32-p271:32:32-p272:64:64-i64:64-f80:128-n8:16:32:64-S128"
target triple = "x86_64-pc-linux-gnu"

@.str = private unnamed_addr constant [9 x i8] c"%d %d %d\00", align 1
@.str.1 = private unnamed_addr constant [4 x i8] c"%d\0A\00", align 1

; Function Attrs: noinline nounwind uwtable
define dso_local i32 @main() #0 {
  %1 = alloca i32, align 4
  %2 = alloca i32, align 4
  %3 = alloca i32, align 4
  %4 = alloca i32, align 4
  %5 = alloca i32, align 4
  %6 = alloca i32, align 4
  store i32 0, i32* %1, align 4
  store i32 1, i32* %2, align 4
  br label %7

7:                                                ; preds = %49, %0
  %8 = load i32, i32* %2, align 4
  %9 = icmp sle i32 %8, 5
  br i1 %9, label %10, label %52

10:                                               ; preds = %7
  %11 = call i32 (i8*, ...) @__isoc99_scanf(i8* getelementptr inbounds ([9 x i8], [9 x i8]* @.str, i64 0, i64 0), i32* %3, i32* %4, i32* %5)
  %12 = load i32, i32* %4, align 4
  switch i32 %12, label %25 [
    i32 1, label %13
    i32 2, label %14
    i32 3, label %15
    i32 4, label %16
    i32 5, label %17
    i32 6, label %18
    i32 7, label %19
    i32 8, label %20
    i32 9, label %21
    i32 10, label %22
    i32 11, label %23
    i32 12, label %24
  ]

13:                                               ; preds = %10
  store i32 0, i32* %6, align 4
  br label %25

14:                                               ; preds = %10
  store i32 31, i32* %6, align 4
  br label %25

15:                                               ; preds = %10
  store i32 59, i32* %6, align 4
  br label %25

16:                                               ; preds = %10
  store i32 90, i32* %6, align 4
  br label %25

17:                                               ; preds = %10
  store i32 120, i32* %6, align 4
  br label %25

18:                                               ; preds = %10
  store i32 151, i32* %6, align 4
  br label %25

19:                                               ; preds = %10
  store i32 181, i32* %6, align 4
  br label %25

20:                                               ; preds = %10
  store i32 212, i32* %6, align 4
  br label %25

21:                                               ; preds = %10
  store i32 243, i32* %6, align 4
  br label %25

22:                                               ; preds = %10
  store i32 273, i32* %6, align 4
  br label %25

23:                                               ; preds = %10
  store i32 304, i32* %6, align 4
  br label %25

24:                                               ; preds = %10
  store i32 334, i32* %6, align 4
  br label %25

25:                                               ; preds = %10, %24, %23, %22, %21, %20, %19, %18, %17, %16, %15, %14, %13
  %26 = load i32, i32* %3, align 4
  %27 = srem i32 %26, 4
  %28 = icmp eq i32 %27, 0
  br i1 %28, label %29, label %33

29:                                               ; preds = %25
  %30 = load i32, i32* %3, align 4
  %31 = srem i32 %30, 100
  %32 = icmp ne i32 %31, 0
  br i1 %32, label %37, label %33

33:                                               ; preds = %29, %25
  %34 = load i32, i32* %3, align 4
  %35 = srem i32 %34, 400
  %36 = icmp eq i32 %35, 0
  br i1 %36, label %37, label %43

37:                                               ; preds = %33, %29
  %38 = load i32, i32* %4, align 4
  %39 = icmp sgt i32 %38, 2
  br i1 %39, label %40, label %43

40:                                               ; preds = %37
  %41 = load i32, i32* %6, align 4
  %42 = add nsw i32 %41, 1
  store i32 %42, i32* %6, align 4
  br label %43

43:                                               ; preds = %40, %37, %33
  %44 = load i32, i32* %5, align 4
  %45 = load i32, i32* %6, align 4
  %46 = add nsw i32 %45, %44
  store i32 %46, i32* %6, align 4
  %47 = load i32, i32* %6, align 4
  %48 = call i32 (i8*, ...) @printf(i8* getelementptr inbounds ([4 x i8], [4 x i8]* @.str.1, i64 0, i64 0), i32 %47)
  br label %49

49:                                               ; preds = %43
  %50 = load i32, i32* %2, align 4
  %51 = add nsw i32 %50, 1
  store i32 %51, i32* %2, align 4
  br label %7

52:                                               ; preds = %7
  ret i32 0
}

declare dso_local i32 @__isoc99_scanf(i8*, ...) #1

declare dso_local i32 @printf(i8*, ...) #1


!llvm.module.flags = !{!0}
!llvm.ident = !{!1}

!0 = !{i32 1, !"wchar_size", i32 4}
!1 = !{!"clang version 10.0.0-4ubuntu1 "}
